target datalayout = "e-m:e-p270:32:32-p271:32:32-p272:64:64-i64:64-i128:128-f80:128-n8:16:32:64-S128"
target triple = "x86_64-pc-linux-gnu"

%class.rational = type { %class.mpq }
%class.mpq = type { %class.mpz, %class.mpz }
%class.mpz = type { i32, i8, ptr }
%"struct.opt::model_based_opt::row" = type { %class.vector, %class.rational, %class.rational, i32, %class.rational, i8, i32 }
%class.vector = type { ptr }
%"class.opt::model_based_opt" = type { %class.vector.0, %class.vector.1, %class.vector.2, %class.svector, %class.vector, %class.svector.4, %class.svector.4, %class.svector.4, %class.svector.4, %class.svector.4, %class.svector.4, %class.svector.4, %class.svector.4, %class.vector.6 }
%class.vector.0 = type { ptr }
%class.vector.1 = type { ptr }
%class.vector.2 = type { ptr }
%class.svector = type { %class.vector.3 }
%class.vector.3 = type { ptr }
%class.svector.4 = type { %class.vector.5 }
%class.vector.5 = type { ptr }
%class.vector.6 = type { ptr }

@_ZN8rational13g_mpq_managerE = external global ptr, align 8

; Function Attrs: mustprogress nounwind uwtable
define linkonce_odr hidden noundef nonnull align 8 dereferenceable(728) ptr @_ZN8rational1mEv() #7 comdat align 2 {
  %1 = load ptr, ptr @_ZN8rational13g_mpq_managerE, align 8, !tbaa !40
  ret ptr %1
}

; Function Attrs: mustprogress uwtable
define linkonce_odr hidden noundef nonnull align 8 dereferenceable(32) ptr @_ZN8rationalpLERKS_(ptr noundef nonnull align 8 dereferenceable(32) %0, ptr noundef nonnull align 8 dereferenceable(32) %1) #4 comdat align 2 {
  %3 = alloca ptr, align 8
  %4 = alloca ptr, align 8
  store ptr %0, ptr %3, align 8, !tbaa !37
  store ptr %1, ptr %4, align 8, !tbaa !37
  %5 = load ptr, ptr %3, align 8
  %6 = call noundef nonnull align 8 dereferenceable(728) ptr @_ZN8rational1mEv()
  %7 = getelementptr inbounds nuw %class.rational, ptr %5, i32 0, i32 0
  %8 = load ptr, ptr %4, align 8, !tbaa !37
  %9 = getelementptr inbounds nuw %class.rational, ptr %8, i32 0, i32 0
  %10 = getelementptr inbounds nuw %class.rational, ptr %5, i32 0, i32 0
  call void @_ZN11mpq_managerILb1EE3addERK3mpqS3_RS1_(ptr noundef nonnull align 8 dereferenceable(728) %6, ptr noundef nonnull align 8 dereferenceable(32) %7, ptr noundef nonnull align 8 dereferenceable(32) %9, ptr noundef nonnull align 8 dereferenceable(32) %10)
  ret ptr %5
}

; Function Attrs: mustprogress nounwind uwtable
define linkonce_odr hidden noundef nonnull align 8 dereferenceable(120) ptr @_ZN6vectorIN3opt15model_based_opt3rowELb1EjEixEj(ptr noundef nonnull align 8 dereferenceable(8) %0, i32 noundef %1) #7 comdat align 2 {
  %3 = alloca ptr, align 8
  %4 = alloca i32, align 4
  store ptr %0, ptr %3, align 8, !tbaa !68
  store i32 %1, ptr %4, align 4, !tbaa !16
  %5 = load ptr, ptr %3, align 8
  %6 = getelementptr inbounds nuw %class.vector.0, ptr %5, i32 0, i32 0
  %7 = load ptr, ptr %6, align 8, !tbaa !70
  %8 = load i32, ptr %4, align 4, !tbaa !16
  %9 = zext i32 %8 to i64
  %10 = getelementptr inbounds nuw %"struct.opt::model_based_opt::row", ptr %7, i64 %9
  ret ptr %10
}

; Function Attrs: mustprogress uwtable
define hidden void @_ZN3opt15model_based_opt3addEjRK8rational(ptr noundef nonnull align 8 dereferenceable(112) %0, i32 noundef %1, ptr noundef nonnull align 8 dereferenceable(32) %2) #4 align 2 {
  %4 = alloca ptr, align 8
  %5 = alloca i32, align 4
  %6 = alloca ptr, align 8
  %7 = alloca ptr, align 8
  store ptr %0, ptr %4, align 8, !tbaa !66
  store i32 %1, ptr %5, align 4, !tbaa !16
  store ptr %2, ptr %6, align 8, !tbaa !37
  %8 = load ptr, ptr %4, align 8
  call void @llvm.lifetime.start.p0(i64 8, ptr %7) #3
  %9 = getelementptr inbounds nuw %"class.opt::model_based_opt", ptr %8, i32 0, i32 0
  %10 = load i32, ptr %5, align 4, !tbaa !16
  %11 = call noundef nonnull align 8 dereferenceable(120) ptr @_ZN6vectorIN3opt15model_based_opt3rowELb1EjEixEj(ptr noundef nonnull align 8 dereferenceable(8) %9, i32 noundef %10)
  store ptr %11, ptr %7, align 8, !tbaa !14
  %12 = load ptr, ptr %6, align 8, !tbaa !37
  %13 = load ptr, ptr %7, align 8, !tbaa !14
  %14 = getelementptr inbounds nuw %"struct.opt::model_based_opt::row", ptr %13, i32 0, i32 1
  %15 = call noundef nonnull align 8 dereferenceable(32) ptr @_ZN8rationalpLERKS_(ptr noundef nonnull align 8 dereferenceable(32) %14, ptr noundef nonnull align 8 dereferenceable(32) %12)
  %16 = load ptr, ptr %6, align 8, !tbaa !37
  %17 = load ptr, ptr %7, align 8, !tbaa !14
  %18 = getelementptr inbounds nuw %"struct.opt::model_based_opt::row", ptr %17, i32 0, i32 4
  %19 = call noundef nonnull align 8 dereferenceable(32) ptr @_ZN8rationalpLERKS_(ptr noundef nonnull align 8 dereferenceable(32) %18, ptr noundef nonnull align 8 dereferenceable(32) %16)
  call void @llvm.lifetime.end.p0(i64 8, ptr %7) #3
  ret void
}