; Function Attrs: mustprogress uwtable
define hidden void @_ZN3opt15model_based_opt3addEjRK8rational(ptr noundef nonnull readonly align 8 captures(none) dereferenceable(112) %0, i32 noundef %1, ptr noundef nonnull align 8 dereferenceable(32) %2) local_unnamed_addr #3 align 2 {
  %4 = load ptr, ptr %0, align 8, !tbaa !53
  %5 = zext i32 %1 to i64
  %6 = getelementptr inbounds nuw %"struct.opt::model_based_opt::row", ptr %4, i64 %5
  %7 = getelementptr inbounds nuw i8, ptr %6, i64 8
  %8 = load ptr, ptr @_ZN8rational13g_mpq_managerE, align 8, !tbaa !11
  tail call void @_ZN11mpq_managerILb1EE3addERK3mpqS3_RS1_(ptr noundef nonnull align 8 dereferenceable(728) %8, ptr noundef nonnull align 8 dereferenceable(32) %7, ptr noundef nonnull align 8 dereferenceable(32) %2, ptr noundef nonnull align 8 dereferenceable(32) %7)
  %9 = getelementptr inbounds nuw i8, ptr %6, i64 80
  %10 = load ptr, ptr @_ZN8rational13g_mpq_managerE, align 8, !tbaa !11
  tail call void @_ZN11mpq_managerILb1EE3addERK3mpqS3_RS1_(ptr noundef nonnull align 8 dereferenceable(728) %10, ptr noundef nonnull align 8 dereferenceable(32) %9, ptr noundef nonnull align 8 dereferenceable(32) %2, ptr noundef nonnull align 8 dereferenceable(32) %9)
  ret void
}